; Function Attrs: mustprogress uwtable
define void @_ZN9grpc_core8channelz12ChannelTrace26AddTraceEventWithReferenceENS1_8SeverityERK10grpc_sliceNS_13RefCountedPtrINS0_8BaseNodeEEE(ptr noundef nonnull align 8 dereferenceable(64) %0, i32 noundef %1, ptr noundef nonnull align 8 dereferenceable(32) %2, ptr noundef captures(none) %3) local_unnamed_addr #9 align 2 personality ptr @__gxx_personality_v0 {
  %5 = alloca %"class.grpc_core::RefCountedPtr", align 8
  %6 = load i64, ptr %0, align 8, !tbaa !99
  %7 = icmp eq i64 %6, 0
  br i1 %7, label %8, label %17

8:                                                ; preds = %4
  %9 = load ptr, ptr %2, align 8, !tbaa !28
  %10 = icmp ugt ptr %9, inttoptr (i64 1 to ptr)
  br i1 %10, label %11, label %_ZN9grpc_core11CSliceUnrefERK10grpc_sliceNS_13DebugLocationE.exit

11:                                               ; preds = %8
  %12 = atomicrmw sub ptr %9, i64 1 acq_rel, align 8
  %13 = icmp eq i64 %12, 1
  br i1 %13, label %14, label %_ZN9grpc_core11CSliceUnrefERK10grpc_sliceNS_13DebugLocationE.exit

14:                                               ; preds = %11
  %15 = getelementptr inbounds nuw i8, ptr %9, i64 8
  %16 = load ptr, ptr %15, align 8, !tbaa !29
  tail call void %16(ptr noundef nonnull align 8 dereferenceable(16) %9)
  br label %_ZN9grpc_core11CSliceUnrefERK10grpc_sliceNS_13DebugLocationE.exit

17:                                               ; preds = %4
  %18 = tail call noalias noundef nonnull dereferenceable(80) ptr @_Znwm(i64 noundef 80) #27
  %19 = load ptr, ptr %3, align 8, !tbaa !26
  store ptr %19, ptr %5, align 8, !tbaa !26
  store ptr null, ptr %3, align 8, !tbaa !26
  invoke void @_ZN9grpc_core8channelz12ChannelTrace10TraceEventC1ENS1_8SeverityERK10grpc_sliceNS_13RefCountedPtrINS0_8BaseNodeEEE(ptr noundef nonnull align 8 dereferenceable(80) %18, i32 noundef %1, ptr noundef nonnull align 8 dereferenceable(32) %2, ptr noundef nonnull %5)
          to label %20 unwind label %31

20:                                               ; preds = %17
  invoke void @_ZN9grpc_core8channelz12ChannelTrace19AddTraceEventHelperEPNS1_10TraceEventE(ptr noundef nonnull align 8 dereferenceable(64) %0, ptr noundef nonnull %18)
          to label %21 unwind label %31

21:                                               ; preds = %20
  %22 = load ptr, ptr %5, align 8, !tbaa !26
  %.not.i = icmp eq ptr %22, null
  br i1 %.not.i, label %_ZN9grpc_core11CSliceUnrefERK10grpc_sliceNS_13DebugLocationE.exit, label %23

23:                                               ; preds = %21
  %24 = getelementptr inbounds nuw i8, ptr %22, i64 8
  %25 = atomicrmw sub ptr %24, i64 1 acq_rel, align 8
  %26 = icmp eq i64 %25, 1
  br i1 %26, label %27, label %_ZN9grpc_core11CSliceUnrefERK10grpc_sliceNS_13DebugLocationE.exit, !prof !33

27:                                               ; preds = %23
  %28 = load ptr, ptr %22, align 8, !tbaa !8
  %29 = getelementptr inbounds nuw i8, ptr %28, i64 8
  %30 = load ptr, ptr %29, align 8
  call void %30(ptr noundef nonnull align 8 dereferenceable(64) %22) #23
  br label %_ZN9grpc_core11CSliceUnrefERK10grpc_sliceNS_13DebugLocationE.exit

_ZN9grpc_core11CSliceUnrefERK10grpc_sliceNS_13DebugLocationE.exit: ; preds = %27, %23, %21, %14, %11, %8
  ret void

31:                                               ; preds = %20, %17
  %.0 = phi i1 [ false, %20 ], [ true, %17 ]
  %32 = landingpad { ptr, i32 }
          cleanup
  %33 = load ptr, ptr %5, align 8, !tbaa !26
  %.not.i6 = icmp eq ptr %33, null
  br i1 %.not.i6, label %_ZN9grpc_core13RefCountedPtrINS_8channelz8BaseNodeEED2Ev.exit7, label %34

34:                                               ; preds = %31
  %35 = getelementptr inbounds nuw i8, ptr %33, i64 8
  %36 = atomicrmw sub ptr %35, i64 1 acq_rel, align 8
  %37 = icmp eq i64 %36, 1
  br i1 %37, label %38, label %_ZN9grpc_core13RefCountedPtrINS_8channelz8BaseNodeEED2Ev.exit7, !prof !33

38:                                               ; preds = %34
  %39 = load ptr, ptr %33, align 8, !tbaa !8
  %40 = getelementptr inbounds nuw i8, ptr %39, i64 8
  %41 = load ptr, ptr %40, align 8
  call void %41(ptr noundef nonnull align 8 dereferenceable(64) %33) #23
  br label %_ZN9grpc_core13RefCountedPtrINS_8channelz8BaseNodeEED2Ev.exit7

_ZN9grpc_core13RefCountedPtrINS_8channelz8BaseNodeEED2Ev.exit7: ; preds = %31, %34, %38
  br i1 %.0, label %42, label %43

42:                                               ; preds = %_ZN9grpc_core13RefCountedPtrINS_8channelz8BaseNodeEED2Ev.exit7
  call void @_ZdlPvm(ptr noundef nonnull %18, i64 noundef 80) #26
  br label %43

43:                                               ; preds = %_ZN9grpc_core13RefCountedPtrINS_8channelz8BaseNodeEED2Ev.exit7, %42
  resume { ptr, i32 } %32
}